target datalayout = "e-m:e-p270:32:32-p271:32:32-p272:64:64-i64:64-i128:128-f80:128-n8:16:32:64-S128"
target triple = "x86_64-pc-linux-gnu"

%struct.bitmap = type { ptr, i64 }
%struct.ewah_iterator = type { ptr, i64, i64, i64, i64, i64, i64, i32 }

; Function Attrs: nounwind uwtable
define dso_local i32 @bitmap_equals_ewah(ptr noundef %0, ptr noundef %1) #0 {
  %3 = alloca i32, align 4
  %4 = alloca ptr, align 8
  %5 = alloca ptr, align 8
  %6 = alloca %struct.ewah_iterator, align 8
  %7 = alloca i64, align 8
  %8 = alloca i64, align 8
  %9 = alloca i32, align 4
  store ptr %0, ptr %4, align 8, !tbaa !8
  store ptr %1, ptr %5, align 8, !tbaa !16
  call void @llvm.lifetime.start.p0(i64 64, ptr %6) #8
  call void @llvm.lifetime.start.p0(i64 8, ptr %7) #8
  call void @llvm.lifetime.start.p0(i64 8, ptr %8) #8
  store i64 0, ptr %8, align 8, !tbaa !4
  %10 = load ptr, ptr %5, align 8, !tbaa !16
  call void @ewah_iterator_init(ptr noundef %6, ptr noundef %10)
  br label %11

11:                                               ; preds = %34, %2
  %12 = call i32 @ewah_iterator_next(ptr noundef %7, ptr noundef %6)
  %13 = icmp ne i32 %12, 0
  br i1 %13, label %14, label %35

14:                                               ; preds = %11
  %15 = load i64, ptr %7, align 8, !tbaa !4
  %16 = load i64, ptr %8, align 8, !tbaa !4
  %17 = load ptr, ptr %4, align 8, !tbaa !8
  %18 = getelementptr inbounds nuw %struct.bitmap, ptr %17, i32 0, i32 1
  %19 = load i64, ptr %18, align 8, !tbaa !14
  %20 = icmp ult i64 %16, %19
  br i1 %20, label %21, label %29

21:                                               ; preds = %14
  %22 = load ptr, ptr %4, align 8, !tbaa !8
  %23 = getelementptr inbounds nuw %struct.bitmap, ptr %22, i32 0, i32 0
  %24 = load ptr, ptr %23, align 8, !tbaa !11
  %25 = load i64, ptr %8, align 8, !tbaa !4
  %26 = add i64 %25, 1
  store i64 %26, ptr %8, align 8, !tbaa !4
  %27 = getelementptr inbounds nuw i64, ptr %24, i64 %25
  %28 = load i64, ptr %27, align 8, !tbaa !4
  br label %30

29:                                               ; preds = %14
  br label %30

30:                                               ; preds = %29, %21
  %31 = phi i64 [ %28, %21 ], [ 0, %29 ]
  %32 = icmp ne i64 %15, %31
  br i1 %32, label %33, label %34

33:                                               ; preds = %30
  store i32 0, ptr %3, align 4
  store i32 1, ptr %9, align 4
  br label %56

34:                                               ; preds = %30
  br label %11, !llvm.loop !33

35:                                               ; preds = %11
  br label %36

36:                                               ; preds = %52, %35
  %37 = load i64, ptr %8, align 8, !tbaa !4
  %38 = load ptr, ptr %4, align 8, !tbaa !8
  %39 = getelementptr inbounds nuw %struct.bitmap, ptr %38, i32 0, i32 1
  %40 = load i64, ptr %39, align 8, !tbaa !14
  %41 = icmp ult i64 %37, %40
  br i1 %41, label %42, label %55

42:                                               ; preds = %36
  %43 = load ptr, ptr %4, align 8, !tbaa !8
  %44 = getelementptr inbounds nuw %struct.bitmap, ptr %43, i32 0, i32 0
  %45 = load ptr, ptr %44, align 8, !tbaa !11
  %46 = load i64, ptr %8, align 8, !tbaa !4
  %47 = getelementptr inbounds nuw i64, ptr %45, i64 %46
  %48 = load i64, ptr %47, align 8, !tbaa !4
  %49 = icmp ne i64 %48, 0
  br i1 %49, label %50, label %51

50:                                               ; preds = %42
  store i32 0, ptr %3, align 4
  store i32 1, ptr %9, align 4
  br label %56

51:                                               ; preds = %42
  br label %52

52:                                               ; preds = %51
  %53 = load i64, ptr %8, align 8, !tbaa !4
  %54 = add i64 %53, 1
  store i64 %54, ptr %8, align 8, !tbaa !4
  br label %36, !llvm.loop !34

55:                                               ; preds = %36
  store i32 1, ptr %3, align 4
  store i32 1, ptr %9, align 4
  br label %56

56:                                               ; preds = %55, %50, %33
  call void @llvm.lifetime.end.p0(i64 8, ptr %8) #8
  call void @llvm.lifetime.end.p0(i64 8, ptr %7) #8
  call void @llvm.lifetime.end.p0(i64 64, ptr %6) #8
  %57 = load i32, ptr %3, align 4
  ret i32 %57
}