; Function Attrs: nounwind uwtable
define dso_local range(i32 0, 2) i32 @bitmap_equals_ewah(ptr noundef readonly captures(none) %0, ptr noundef %1) local_unnamed_addr #0 {
  %3 = alloca %struct.ewah_iterator, align 8
  %4 = alloca i64, align 8
  call void @llvm.lifetime.start.p0(i64 64, ptr nonnull %3) #13
  call void @llvm.lifetime.start.p0(i64 8, ptr nonnull %4) #13
  call void @ewah_iterator_init(ptr noundef nonnull %3, ptr noundef %1) #13
  %5 = getelementptr inbounds nuw i8, ptr %0, i64 8
  br label %6

6:                                                ; preds = %20, %2
  %.0 = phi i64 [ 0, %2 ], [ %.1, %20 ]
  %7 = call i32 @ewah_iterator_next(ptr noundef nonnull %4, ptr noundef nonnull %3) #13
  %.not = icmp eq i32 %7, 0
  br i1 %.not, label %.preheader, label %11

.preheader:                                       ; preds = %6
  %8 = load i64, ptr %5, align 8, !tbaa !11
  %9 = icmp ult i64 %.0, %8
  br i1 %9, label %.lr.ph, label %.loopexit

.lr.ph:                                           ; preds = %.preheader
  %10 = load ptr, ptr %0, align 8, !tbaa !4
  br label %24

11:                                               ; preds = %6
  %12 = load i64, ptr %4, align 8, !tbaa !12
  %13 = load i64, ptr %5, align 8, !tbaa !11
  %14 = icmp ult i64 %.0, %13
  br i1 %14, label %15, label %20

15:                                               ; preds = %11
  %16 = load ptr, ptr %0, align 8, !tbaa !4
  %17 = add nuw i64 %.0, 1
  %18 = getelementptr inbounds nuw i64, ptr %16, i64 %.0
  %19 = load i64, ptr %18, align 8, !tbaa !12
  br label %20

20:                                               ; preds = %11, %15
  %.1 = phi i64 [ %17, %15 ], [ %.0, %11 ]
  %21 = phi i64 [ %19, %15 ], [ 0, %11 ]
  %.not12 = icmp eq i64 %12, %21
  br i1 %.not12, label %6, label %.loopexit, !llvm.loop !28

22:                                               ; preds = %24
  %23 = add i64 %.215, 1
  %exitcond.not = icmp eq i64 %23, %8
  br i1 %exitcond.not, label %.loopexit, label %24, !llvm.loop !29

24:                                               ; preds = %.lr.ph, %22
  %.215 = phi i64 [ %.0, %.lr.ph ], [ %23, %22 ]
  %25 = getelementptr inbounds nuw i64, ptr %10, i64 %.215
  %26 = load i64, ptr %25, align 8, !tbaa !12
  %.not11 = icmp eq i64 %26, 0
  br i1 %.not11, label %22, label %.loopexit

.loopexit:                                        ; preds = %20, %24, %22, %.preheader
  %.010 = phi i32 [ 1, %.preheader ], [ 0, %24 ], [ 1, %22 ], [ 0, %20 ]
  call void @llvm.lifetime.end.p0(i64 8, ptr nonnull %4) #13
  call void @llvm.lifetime.end.p0(i64 64, ptr nonnull %3) #13
  ret i32 %.010
}